; Function Attrs: nounwind uwtable
define void @duckdb_je_pa_shard_basic_stats_merge(ptr noundef %0, ptr noundef captures(none) %1, ptr noundef captures(none) %2, ptr noundef captures(none) %3) local_unnamed_addr #0 {
  %5 = getelementptr inbounds nuw i8, ptr %0, i64 8
  %6 = load atomic i64, ptr %5 monotonic, align 8
  %7 = load i64, ptr %1, align 8, !tbaa !52
  %8 = add i64 %7, %6
  store i64 %8, ptr %1, align 8, !tbaa !52
  %9 = getelementptr inbounds nuw i8, ptr %0, i64 192
  %10 = tail call i64 @duckdb_je_eset_npages_get(ptr noundef nonnull %9) #5
  %11 = getelementptr inbounds nuw i8, ptr %0, i64 9848
  %12 = tail call i64 @duckdb_je_eset_npages_get(ptr noundef nonnull %11) #5
  %13 = add i64 %12, %10
  %14 = getelementptr inbounds nuw i8, ptr %0, i64 17
  %15 = load i8, ptr %14, align 1, !tbaa !3, !range !49, !noundef !50
  %16 = trunc nuw i8 %15 to i1
  br i1 %16, label %17, label %duckdb_je_pa_shard_ndirty.exit

17:                                               ; preds = %4
  %18 = getelementptr i8, ptr %0, i64 63752
  %.val.i = load i64, ptr %18, align 8, !tbaa !51
  %19 = add i64 %.val.i, %13
  br label %duckdb_je_pa_shard_ndirty.exit

duckdb_je_pa_shard_ndirty.exit:                   ; preds = %4, %17
  %.0.i = phi i64 [ %19, %17 ], [ %13, %4 ]
  %20 = load i64, ptr %2, align 8, !tbaa !52
  %21 = add i64 %20, %.0.i
  store i64 %21, ptr %2, align 8, !tbaa !52
  %22 = getelementptr inbounds nuw i8, ptr %0, i64 19632
  %23 = tail call i64 @duckdb_je_eset_npages_get(ptr noundef nonnull %22) #5
  %24 = getelementptr inbounds nuw i8, ptr %0, i64 29288
  %25 = tail call i64 @duckdb_je_eset_npages_get(ptr noundef nonnull %24) #5
  %26 = add i64 %25, %23
  %27 = load i64, ptr %3, align 8, !tbaa !52
  %28 = add i64 %26, %27
  store i64 %28, ptr %3, align 8, !tbaa !52
  ret void
}